; ModuleID = '23/147.c'
source_filename = "23/147.c"
target datalayout = "e-m:e-p270:32:32-p271:32:32-p272:64:64-i64:64-f80:128-n8:16:32:64-S128"
target triple = "x86_64-pc-linux-gnu"

@.str = private unnamed_addr constant [2 x i8] c" \00", align 1

; Function Attrs: noinline nounwind uwtable
define dso_local i32 @EnStack(i8* %0, i32 %1, i8 signext %2) #0 {
  %4 = alloca i8*, align 8
  %5 = alloca i32, align 4
  %6 = alloca i8, align 1
  store i8* %0, i8** %4, align 8
  store i32 %1, i32* %5, align 4
  store i8 %2, i8* %6, align 1
  %7 = load i8, i8* %6, align 1
  %8 = load i8*, i8** %4, align 8
  %9 = load i32, i32* %5, align 4
  %10 = add nsw i32 %9, 1
  store i32 %10, i32* %5, align 4
  %11 = sext i32 %10 to i64
  %12 = getelementptr inbounds i8, i8* %8, i64 %11
  store i8 %7, i8* %12, align 1
  %13 = load i32, i32* %5, align 4
  ret i32 %13
}

; Function Attrs: noinline nounwind uwtable
define dso_local i32 @PushAndPop(i8* %0, i32 %1) #0 {
  %3 = alloca i8*, align 8
  %4 = alloca i32, align 4
  store i8* %0, i8** %3, align 8
  store i32 %1, i32* %4, align 4
  br label %5

5:                                                ; preds = %8, %2
  %6 = load i32, i32* %4, align 4
  %7 = icmp sge i32 %6, 0
  br i1 %7, label %8, label %17

8:                                                ; preds = %5
  %9 = load i8*, i8** %3, align 8
  %10 = load i32, i32* %4, align 4
  %11 = add nsw i32 %10, -1
  store i32 %11, i32* %4, align 4
  %12 = sext i32 %10 to i64
  %13 = getelementptr inbounds i8, i8* %9, i64 %12
  %14 = load i8, i8* %13, align 1
  %15 = sext i8 %14 to i32
  %16 = call i32 @putchar(i32 %15)
  br label %5

17:                                               ; preds = %5
  %18 = load i8*, i8** %3, align 8
  %19 = getelementptr inbounds i8, i8* %18, i64 0
  store i8 0, i8* %19, align 1
  %20 = load i32, i32* %4, align 4
  ret i32 %20
}

declare dso_local i32 @putchar(i32) #1

; Function Attrs: noinline nounwind uwtable
define dso_local i32 @IsEmpty(i8* %0) #0 {
  %2 = alloca i8*, align 8
  store i8* %0, i8** %2, align 8
  %3 = load i8*, i8** %2, align 8
  %4 = getelementptr inbounds i8, i8* %3, i64 0
  %5 = load i8, i8* %4, align 1
  %6 = sext i8 %5 to i32
  %7 = icmp eq i32 %6, 0
  %8 = zext i1 %7 to i32
  ret i32 %8
}

; Function Attrs: noinline nounwind uwtable
define dso_local i32 @main() #0 {
  %1 = alloca i32, align 4
  %2 = alloca i32, align 4
  %3 = alloca [20 x i8], align 16
  %4 = alloca [101 x i8], align 16
  %5 = alloca i32, align 4
  %6 = alloca i32, align 4
  store i32 0, i32* %1, align 4
  store i32 -1, i32* %2, align 4
  %7 = bitcast [20 x i8]* %3 to i8*
  call void @llvm.memset.p0i8.i64(i8* align 16 %7, i8 0, i64 20, i1 false)
  %8 = bitcast [101 x i8]* %4 to i8*
  call void @llvm.memset.p0i8.i64(i8* align 16 %8, i8 0, i64 101, i1 false)
  store i32 0, i32* %5, align 4
  %9 = getelementptr inbounds [101 x i8], [101 x i8]* %4, i64 0, i64 0
  %10 = call i32 (i8*, ...) bitcast (i32 (...)* @gets to i32 (i8*, ...)*)(i8* %9)
  %11 = getelementptr inbounds [101 x i8], [101 x i8]* %4, i64 0, i64 0
  %12 = call i64 @strlen(i8* %11) #4
  %13 = sub i64 %12, 1
  %14 = trunc i64 %13 to i32
  store i32 %14, i32* %6, align 4
  br label %15

15:                                               ; preds = %49, %0
  %16 = load i32, i32* %6, align 4
  %17 = icmp sge i32 %16, 0
  br i1 %17, label %18, label %52

18:                                               ; preds = %15
  %19 = load i32, i32* %6, align 4
  %20 = sext i32 %19 to i64
  %21 = getelementptr inbounds [101 x i8], [101 x i8]* %4, i64 0, i64 %20
  %22 = load i8, i8* %21, align 1
  %23 = sext i8 %22 to i32
  %24 = icmp ne i32 %23, 32
  br i1 %24, label %25, label %33

25:                                               ; preds = %18
  %26 = getelementptr inbounds [20 x i8], [20 x i8]* %3, i64 0, i64 0
  %27 = load i32, i32* %2, align 4
  %28 = load i32, i32* %6, align 4
  %29 = sext i32 %28 to i64
  %30 = getelementptr inbounds [101 x i8], [101 x i8]* %4, i64 0, i64 %29
  %31 = load i8, i8* %30, align 1
  %32 = call i32 @EnStack(i8* %26, i32 %27, i8 signext %31)
  store i32 %32, i32* %2, align 4
  br label %48

33:                                               ; preds = %18
  %34 = getelementptr inbounds [20 x i8], [20 x i8]* %3, i64 0, i64 0
  %35 = call i32 @IsEmpty(i8* %34)
  %36 = icmp ne i32 %35, 0
  br i1 %36, label %47, label %37

37:                                               ; preds = %33
  %38 = load i32, i32* %5, align 4
  %39 = icmp ne i32 %38, 0
  br i1 %39, label %40, label %42

40:                                               ; preds = %37
  %41 = call i32 (i8*, ...) @printf(i8* getelementptr inbounds ([2 x i8], [2 x i8]* @.str, i64 0, i64 0))
  br label %43

42:                                               ; preds = %37
  store i32 1, i32* %5, align 4
  br label %43

43:                                               ; preds = %42, %40
  %44 = getelementptr inbounds [20 x i8], [20 x i8]* %3, i64 0, i64 0
  %45 = load i32, i32* %2, align 4
  %46 = call i32 @PushAndPop(i8* %44, i32 %45)
  store i32 %46, i32* %2, align 4
  br label %47

47:                                               ; preds = %43, %33
  br label %48

48:                                               ; preds = %47, %25
  br label %49

49:                                               ; preds = %48
  %50 = load i32, i32* %6, align 4
  %51 = add nsw i32 %50, -1
  store i32 %51, i32* %6, align 4
  br label %15

52:                                               ; preds = %15
  %53 = getelementptr inbounds [20 x i8], [20 x i8]* %3, i64 0, i64 0
  %54 = call i32 @IsEmpty(i8* %53)
  %55 = icmp ne i32 %54, 0
  br i1 %55, label %65, label %56

56:                                               ; preds = %52
  %57 = load i32, i32* %5, align 4
  %58 = icmp ne i32 %57, 0
  br i1 %58, label %59, label %61

59:                                               ; preds = %56
  %60 = call i32 (i8*, ...) @printf(i8* getelementptr inbounds ([2 x i8], [2 x i8]* @.str, i64 0, i64 0))
  br label %61

61:                                               ; preds = %59, %56
  %62 = getelementptr inbounds [20 x i8], [20 x i8]* %3, i64 0, i64 0
  %63 = load i32, i32* %2, align 4
  %64 = call i32 @PushAndPop(i8* %62, i32 %63)
  br label %65

65:                                               ; preds = %61, %52
  ret i32 1
}

; Function Attrs: argmemonly nounwind willreturn
declare void @llvm.memset.p0i8.i64(i8* nocapture writeonly, i8, i64, i1 immarg) #2

declare dso_local i32 @gets(...) #1

; Function Attrs: nounwind readonly
declare dso_local i64 @strlen(i8*) #3

declare dso_local i32 @printf(i8*, ...) #1


!llvm.module.flags = !{!0}
!llvm.ident = !{!1}

!0 = !{i32 1, !"wchar_size", i32 4}
!1 = !{!"clang version 10.0.0-4ubuntu1 "}
